; ModuleID = '14/1526.c'
source_filename = "14/1526.c"
target datalayout = "e-m:e-p270:32:32-p271:32:32-p272:64:64-i64:64-f80:128-n8:16:32:64-S128"
target triple = "x86_64-pc-linux-gnu"

%struct.student = type { i32, i32, i32, i32, %struct.student* }

@.str = private unnamed_addr constant [3 x i8] c"%d\00", align 1
@student_num = common dso_local global i32 0, align 4
@.str.1 = private unnamed_addr constant [9 x i8] c"%d %d %d\00", align 1
@.str.2 = private unnamed_addr constant [19 x i8] c"%d %d\0A%d %d\0A%d %d\0A\00", align 1

; Function Attrs: noinline nounwind uwtable
define dso_local %struct.student* @creat() #0 {
  %1 = alloca %struct.student*, align 8
  %2 = alloca %struct.student*, align 8
  %3 = alloca %struct.student*, align 8
  %4 = alloca i32, align 4
  store i32 0, i32* %4, align 4
  %5 = call i32 (i8*, ...) @__isoc99_scanf(i8* getelementptr inbounds ([3 x i8], [3 x i8]* @.str, i64 0, i64 0), i32* @student_num)
  %6 = call noalias i8* @malloc(i64 24) #3
  %7 = bitcast i8* %6 to %struct.student*
  store %struct.student* %7, %struct.student** %2, align 8
  store %struct.student* %7, %struct.student** %1, align 8
  br label %8

8:                                                ; preds = %25, %0
  %9 = load i32, i32* %4, align 4
  %10 = load i32, i32* @student_num, align 4
  %11 = icmp slt i32 %9, %10
  br i1 %11, label %12, label %50

12:                                               ; preds = %8
  %13 = load i32, i32* %4, align 4
  %14 = icmp eq i32 %13, 0
  br i1 %14, label %15, label %17

15:                                               ; preds = %12
  %16 = load %struct.student*, %struct.student** %1, align 8
  store %struct.student* %16, %struct.student** %3, align 8
  br label %17

17:                                               ; preds = %15, %12
  %18 = load i32, i32* %4, align 4
  %19 = load i32, i32* @student_num, align 4
  %20 = sub nsw i32 %19, 1
  %21 = icmp eq i32 %18, %20
  br i1 %21, label %22, label %25

22:                                               ; preds = %17
  %23 = load %struct.student*, %struct.student** %1, align 8
  %24 = getelementptr inbounds %struct.student, %struct.student* %23, i32 0, i32 4
  store %struct.student* null, %struct.student** %24, align 8
  br label %25

25:                                               ; preds = %22, %17
  %26 = load %struct.student*, %struct.student** %1, align 8
  %27 = getelementptr inbounds %struct.student, %struct.student* %26, i32 0, i32 0
  %28 = load %struct.student*, %struct.student** %1, align 8
  %29 = getelementptr inbounds %struct.student, %struct.student* %28, i32 0, i32 1
  %30 = load %struct.student*, %struct.student** %1, align 8
  %31 = getelementptr inbounds %struct.student, %struct.student* %30, i32 0, i32 2
  %32 = call i32 (i8*, ...) @__isoc99_scanf(i8* getelementptr inbounds ([9 x i8], [9 x i8]* @.str.1, i64 0, i64 0), i32* %27, i32* %29, i32* %31)
  %33 = load %struct.student*, %struct.student** %1, align 8
  %34 = getelementptr inbounds %struct.student, %struct.student* %33, i32 0, i32 1
  %35 = load i32, i32* %34, align 4
  %36 = load %struct.student*, %struct.student** %1, align 8
  %37 = getelementptr inbounds %struct.student, %struct.student* %36, i32 0, i32 2
  %38 = load i32, i32* %37, align 8
  %39 = add nsw i32 %35, %38
  %40 = load %struct.student*, %struct.student** %1, align 8
  %41 = getelementptr inbounds %struct.student, %struct.student* %40, i32 0, i32 3
  store i32 %39, i32* %41, align 4
  %42 = load %struct.student*, %struct.student** %1, align 8
  store %struct.student* %42, %struct.student** %2, align 8
  %43 = call noalias i8* @malloc(i64 24) #3
  %44 = bitcast i8* %43 to %struct.student*
  store %struct.student* %44, %struct.student** %1, align 8
  %45 = load %struct.student*, %struct.student** %1, align 8
  %46 = load %struct.student*, %struct.student** %2, align 8
  %47 = getelementptr inbounds %struct.student, %struct.student* %46, i32 0, i32 4
  store %struct.student* %45, %struct.student** %47, align 8
  %48 = load i32, i32* %4, align 4
  %49 = add nsw i32 %48, 1
  store i32 %49, i32* %4, align 4
  br label %8

50:                                               ; preds = %8
  %51 = load %struct.student*, %struct.student** %3, align 8
  ret %struct.student* %51
}

declare dso_local i32 @__isoc99_scanf(i8*, ...) #1

; Function Attrs: nounwind
declare dso_local noalias i8* @malloc(i64) #2

; Function Attrs: noinline nounwind uwtable
define dso_local void @main() #0 {
  %1 = alloca %struct.student*, align 8
  %2 = alloca %struct.student*, align 8
  %3 = alloca i32, align 4
  %4 = alloca i32, align 4
  %5 = alloca i32, align 4
  %6 = alloca i32, align 4
  %7 = alloca i32, align 4
  %8 = alloca i32, align 4
  %9 = alloca i32, align 4
  %10 = alloca i32, align 4
  store i32 0, i32* %4, align 4
  %11 = call %struct.student* @creat()
  store %struct.student* %11, %struct.student** %1, align 8
  store i32 0, i32* %5, align 4
  store i32 0, i32* %6, align 4
  store i32 0, i32* %7, align 4
  %12 = load %struct.student*, %struct.student** %1, align 8
  store %struct.student* %12, %struct.student** %2, align 8
  store i32 1, i32* %3, align 4
  br label %13

13:                                               ; preds = %80, %0
  %14 = load i32, i32* %3, align 4
  %15 = load i32, i32* @student_num, align 4
  %16 = icmp sle i32 %14, %15
  br i1 %16, label %17, label %83

17:                                               ; preds = %13
  %18 = load %struct.student*, %struct.student** %2, align 8
  %19 = getelementptr inbounds %struct.student, %struct.student* %18, i32 0, i32 3
  %20 = load i32, i32* %19, align 4
  %21 = load i32, i32* %5, align 4
  %22 = icmp sgt i32 %20, %21
  br i1 %22, label %23, label %34

23:                                               ; preds = %17
  %24 = load i32, i32* %6, align 4
  store i32 %24, i32* %7, align 4
  %25 = load i32, i32* %5, align 4
  store i32 %25, i32* %6, align 4
  %26 = load %struct.student*, %struct.student** %2, align 8
  %27 = getelementptr inbounds %struct.student, %struct.student* %26, i32 0, i32 3
  %28 = load i32, i32* %27, align 4
  store i32 %28, i32* %5, align 4
  %29 = load i32, i32* %9, align 4
  store i32 %29, i32* %10, align 4
  %30 = load i32, i32* %8, align 4
  store i32 %30, i32* %9, align 4
  %31 = load %struct.student*, %struct.student** %2, align 8
  %32 = getelementptr inbounds %struct.student, %struct.student* %31, i32 0, i32 0
  %33 = load i32, i32* %32, align 8
  store i32 %33, i32* %8, align 4
  br label %76

34:                                               ; preds = %17
  %35 = load %struct.student*, %struct.student** %2, align 8
  %36 = getelementptr inbounds %struct.student, %struct.student* %35, i32 0, i32 3
  %37 = load i32, i32* %36, align 4
  %38 = load i32, i32* %5, align 4
  %39 = icmp sle i32 %37, %38
  br i1 %39, label %40, label %55

40:                                               ; preds = %34
  %41 = load %struct.student*, %struct.student** %2, align 8
  %42 = getelementptr inbounds %struct.student, %struct.student* %41, i32 0, i32 3
  %43 = load i32, i32* %42, align 4
  %44 = load i32, i32* %6, align 4
  %45 = icmp sgt i32 %43, %44
  br i1 %45, label %46, label %55

46:                                               ; preds = %40
  %47 = load i32, i32* %6, align 4
  store i32 %47, i32* %7, align 4
  %48 = load %struct.student*, %struct.student** %2, align 8
  %49 = getelementptr inbounds %struct.student, %struct.student* %48, i32 0, i32 3
  %50 = load i32, i32* %49, align 4
  store i32 %50, i32* %6, align 4
  %51 = load i32, i32* %9, align 4
  store i32 %51, i32* %10, align 4
  %52 = load %struct.student*, %struct.student** %2, align 8
  %53 = getelementptr inbounds %struct.student, %struct.student* %52, i32 0, i32 0
  %54 = load i32, i32* %53, align 8
  store i32 %54, i32* %9, align 4
  br label %75

55:                                               ; preds = %40, %34
  %56 = load %struct.student*, %struct.student** %2, align 8
  %57 = getelementptr inbounds %struct.student, %struct.student* %56, i32 0, i32 3
  %58 = load i32, i32* %57, align 4
  %59 = load i32, i32* %6, align 4
  %60 = icmp sle i32 %58, %59
  br i1 %60, label %61, label %74

61:                                               ; preds = %55
  %62 = load %struct.student*, %struct.student** %2, align 8
  %63 = getelementptr inbounds %struct.student, %struct.student* %62, i32 0, i32 3
  %64 = load i32, i32* %63, align 4
  %65 = load i32, i32* %7, align 4
  %66 = icmp sgt i32 %64, %65
  br i1 %66, label %67, label %74

67:                                               ; preds = %61
  %68 = load %struct.student*, %struct.student** %2, align 8
  %69 = getelementptr inbounds %struct.student, %struct.student* %68, i32 0, i32 3
  %70 = load i32, i32* %69, align 4
  store i32 %70, i32* %7, align 4
  %71 = load %struct.student*, %struct.student** %2, align 8
  %72 = getelementptr inbounds %struct.student, %struct.student* %71, i32 0, i32 0
  %73 = load i32, i32* %72, align 8
  store i32 %73, i32* %10, align 4
  br label %74

74:                                               ; preds = %67, %61, %55
  br label %75

75:                                               ; preds = %74, %46
  br label %76

76:                                               ; preds = %75, %23
  %77 = load %struct.student*, %struct.student** %2, align 8
  %78 = getelementptr inbounds %struct.student, %struct.student* %77, i32 0, i32 4
  %79 = load %struct.student*, %struct.student** %78, align 8
  store %struct.student* %79, %struct.student** %2, align 8
  br label %80

80:                                               ; preds = %76
  %81 = load i32, i32* %3, align 4
  %82 = add nsw i32 %81, 1
  store i32 %82, i32* %3, align 4
  br label %13

83:                                               ; preds = %13
  %84 = load i32, i32* %8, align 4
  %85 = load i32, i32* %5, align 4
  %86 = load i32, i32* %9, align 4
  %87 = load i32, i32* %6, align 4
  %88 = load i32, i32* %10, align 4
  %89 = load i32, i32* %7, align 4
  %90 = call i32 (i8*, ...) @printf(i8* getelementptr inbounds ([19 x i8], [19 x i8]* @.str.2, i64 0, i64 0), i32 %84, i32 %85, i32 %86, i32 %87, i32 %88, i32 %89)
  ret void
}

declare dso_local i32 @printf(i8*, ...) #1


!llvm.module.flags = !{!0}
!llvm.ident = !{!1}

!0 = !{i32 1, !"wchar_size", i32 4}
!1 = !{!"clang version 10.0.0-4ubuntu1 "}
